---
triple:          'arm64-apple-darwin'
binary-path:     '/Users/josecalvano/Desktop/Fabri/Algoritmo y estructura de datos /segundo Cuatri/tp/tp'
relocations:
  - { offsetInCU: 0x2F7C, offset: 0x2F7C, size: 0x8, addend: 0x0, symName: __ZNSt3__124__put_character_sequenceB8ue170006IcNS_11char_traitsIcEEEERNS_13basic_ostreamIT_T0_EES7_PKS4_m, symObjAddr: 0x2D4C, symBinAddr: 0x100006CFC, symSize: 0x1EC }
  - { offsetInCU: 0x490B, offset: 0x490B, size: 0x8, addend: 0x0, symName: __ZNSt3__118__constexpr_strlenB8ue170006EPKc, symObjAddr: 0x20A0, symBinAddr: 0x100006050, symSize: 0x24 }
  - { offsetInCU: 0x4937, offset: 0x4937, size: 0x8, addend: 0x0, symName: __ZNSt3__1ltB8ue170006IcNS_11char_traitsIcEENS_9allocatorIcEEEEbRKNS_12basic_stringIT_T0_T1_EESB_, symObjAddr: 0x22D0, symBinAddr: 0x100006280, symSize: 0x38 }
  - { offsetInCU: 0x498F, offset: 0x498F, size: 0x8, addend: 0x0, symName: __ZNSt3__1eqB8ue170006INS_9allocatorIcEEEEbRKNS_12basic_stringIcNS_11char_traitsIcEET_EES9_, symObjAddr: 0x2308, symBinAddr: 0x1000062B8, symSize: 0x148 }
  - { offsetInCU: 0x4A02, offset: 0x4A02, size: 0x8, addend: 0x0, symName: __ZNSt3__13minB8ue170006ImEERKT_S3_S3_, symObjAddr: 0x276C, symBinAddr: 0x10000671C, symSize: 0x2C }
  - { offsetInCU: 0x4A45, offset: 0x4A45, size: 0x8, addend: 0x0, symName: __ZNSt3__112__to_addressB8ue170006IKcEEPT_S3_, symObjAddr: 0x2864, symBinAddr: 0x100006814, symSize: 0x14 }
  - { offsetInCU: 0x4AAD, offset: 0x4AAD, size: 0x8, addend: 0x0, symName: __ZNSt3__13minB8ue170006ImNS_6__lessIvvEEEERKT_S5_S5_T0_, symObjAddr: 0x2930, symBinAddr: 0x1000068E0, symSize: 0x54 }
  - { offsetInCU: 0x4B4C, offset: 0x4B4C, size: 0x8, addend: 0x0, symName: __ZNSt3__1lsB8ue170006INS_11char_traitsIcEEEERNS_13basic_ostreamIcT_EES6_PKc, symObjAddr: 0x2B04, symBinAddr: 0x100006AB4, symSize: 0x48 }
  - { offsetInCU: 0x4B92, offset: 0x4B92, size: 0x8, addend: 0x0, symName: __ZNSt3__14endlB8ue170006IcNS_11char_traitsIcEEEERNS_13basic_ostreamIT_T0_EES7_, symObjAddr: 0x2B78, symBinAddr: 0x100006B28, symSize: 0x58 }
  - { offsetInCU: 0x4BD2, offset: 0x4BD2, size: 0x8, addend: 0x0, symName: __ZNSt3__1lsB8ue170006IcNS_11char_traitsIcEEEERNS_13basic_ostreamIT_T0_EES7_RKNS_8__iom_t6E, symObjAddr: 0x2BD0, symBinAddr: 0x100006B80, symSize: 0x40 }
  - { offsetInCU: 0x4C21, offset: 0x4C21, size: 0x8, addend: 0x0, symName: __ZNSt3__14leftB8ue170006ERNS_8ios_baseE, symObjAddr: 0x2C50, symBinAddr: 0x100006C00, symSize: 0x30 }
  - { offsetInCU: 0x4C4F, offset: 0x4C4F, size: 0x8, addend: 0x0, symName: __ZNSt3__14setwB8ue170006Ei, symObjAddr: 0x2C80, symBinAddr: 0x100006C30, symSize: 0x2C }
  - { offsetInCU: 0x4C7D, offset: 0x4C7D, size: 0x8, addend: 0x0, symName: __ZNSt3__116__pad_and_outputB8ue170006IcNS_11char_traitsIcEEEENS_19ostreambuf_iteratorIT_T0_EES6_PKS4_S8_S8_RNS_8ios_baseES4_, symObjAddr: 0x2F54, symBinAddr: 0x100006F04, symSize: 0x240 }
  - { offsetInCU: 0x4D4C, offset: 0x4D4C, size: 0x8, addend: 0x0, symName: __ZNSt3__19use_facetB8ue170006INS_5ctypeIcEEEERKT_RKNS_6localeE, symObjAddr: 0x34E0, symBinAddr: 0x100007490, symSize: 0x2C }
  - { offsetInCU: 0x5219, offset: 0x5219, size: 0x8, addend: 0x0, symName: __ZNSt3__1lsB8ue170006IcNS_11char_traitsIcEENS_9allocatorIcEEEERNS_13basic_ostreamIT_T0_EES9_RKNS_12basic_stringIS6_S7_T1_EE, symObjAddr: 0x3650, symBinAddr: 0x100007600, symSize: 0x4C }
  - { offsetInCU: 0x78B7, offset: 0x78B7, size: 0x8, addend: 0x0, symName: _main, symObjAddr: 0x0, symBinAddr: 0x100003FB0, symSize: 0x10A4 }
  - { offsetInCU: 0x7AB7, offset: 0x7AB7, size: 0x8, addend: 0x0, symName: __ZNSt3__112basic_stringIcNS_11char_traitsIcEENS_9allocatorIcEEEC1B8ue170006ILi0EEEPKc, symObjAddr: 0x10A4, symBinAddr: 0x100005054, symSize: 0x34 }
  - { offsetInCU: 0x7B78, offset: 0x7B78, size: 0x8, addend: 0x0, symName: __ZN11DockArchivoINSt3__112basic_stringIcNS0_11char_traitsIcEENS0_9allocatorIcEEEEEC1EjS6_S6_j, symObjAddr: 0x10D8, symBinAddr: 0x100005088, symSize: 0x4C }
  - { offsetInCU: 0x7BDA, offset: 0x7BDA, size: 0x8, addend: 0x0, symName: __Z11agregarNodoINSt3__112basic_stringIcNS0_11char_traitsIcEENS0_9allocatorIcEEEEEvRP11NodoArchivoIT_E11DockArchivoIS8_E, symObjAddr: 0x1124, symBinAddr: 0x1000050D4, symSize: 0x13C }
  - { offsetInCU: 0x7C4E, offset: 0x7C4E, size: 0x8, addend: 0x0, symName: __ZN11DockArchivoINSt3__112basic_stringIcNS0_11char_traitsIcEENS0_9allocatorIcEEEEEC1ERKS7_, symObjAddr: 0x1260, symBinAddr: 0x100005210, symSize: 0x34 }
  - { offsetInCU: 0x7C80, offset: 0x7C80, size: 0x8, addend: 0x0, symName: __ZN11DockArchivoINSt3__112basic_stringIcNS0_11char_traitsIcEENS0_9allocatorIcEEEEED1Ev, symObjAddr: 0x1294, symBinAddr: 0x100005244, symSize: 0x2C }
  - { offsetInCU: 0x7EAD, offset: 0x7EAD, size: 0x8, addend: 0x0, symName: __ZN4DockINSt3__112basic_stringIcNS0_11char_traitsIcEENS0_9allocatorIcEEEEEC1Ev, symObjAddr: 0x12C0, symBinAddr: 0x100005270, symSize: 0x2C }
  - { offsetInCU: 0x7ED5, offset: 0x7ED5, size: 0x8, addend: 0x0, symName: __ZN8ProductoINSt3__112basic_stringIcNS0_11char_traitsIcEENS0_9allocatorIcEEEEEC1Ev, symObjAddr: 0x12EC, symBinAddr: 0x10000529C, symSize: 0x2C }
  - { offsetInCU: 0x7EFD, offset: 0x7EFD, size: 0x8, addend: 0x0, symName: __ZN9ProvinciaINSt3__112basic_stringIcNS0_11char_traitsIcEENS0_9allocatorIcEEEEEC1Ev, symObjAddr: 0x1318, symBinAddr: 0x1000052C8, symSize: 0x2C }
  - { offsetInCU: 0x7F25, offset: 0x7F25, size: 0x8, addend: 0x0, symName: __Z18buscarInsertarDockINSt3__112basic_stringIcNS0_11char_traitsIcEENS0_9allocatorIcEEEEEP4NodoIT_ERSA_4DockIS8_E, symObjAddr: 0x1344, symBinAddr: 0x1000052F4, symSize: 0x1D0 }
  - { offsetInCU: 0x7F99, offset: 0x7F99, size: 0x8, addend: 0x0, symName: __Z21buscarInsertarSubProdINSt3__112basic_stringIcNS0_11char_traitsIcEENS0_9allocatorIcEEEEEP7NodoSubIT_ERSA_8ProductoIS8_E, symObjAddr: 0x1514, symBinAddr: 0x1000054C4, symSize: 0x1FC }
  - { offsetInCU: 0x801D, offset: 0x801D, size: 0x8, addend: 0x0, symName: __ZN8ProductoINSt3__112basic_stringIcNS0_11char_traitsIcEENS0_9allocatorIcEEEEEC1ERKS7_, symObjAddr: 0x1710, symBinAddr: 0x1000056C0, symSize: 0x34 }
  - { offsetInCU: 0x804F, offset: 0x804F, size: 0x8, addend: 0x0, symName: __ZN8ProductoINSt3__112basic_stringIcNS0_11char_traitsIcEENS0_9allocatorIcEEEEED1Ev, symObjAddr: 0x1744, symBinAddr: 0x1000056F4, symSize: 0x2C }
  - { offsetInCU: 0x8079, offset: 0x8079, size: 0x8, addend: 0x0, symName: __Z21buscarInsertarSubProvINSt3__112basic_stringIcNS0_11char_traitsIcEENS0_9allocatorIcEEEEEP16NodoSubProvinciaIT_ERSA_9ProvinciaIS8_E, symObjAddr: 0x1770, symBinAddr: 0x100005720, symSize: 0x1FC }
  - { offsetInCU: 0x80FD, offset: 0x80FD, size: 0x8, addend: 0x0, symName: __ZN9ProvinciaINSt3__112basic_stringIcNS0_11char_traitsIcEENS0_9allocatorIcEEEEEC1ERKS7_, symObjAddr: 0x196C, symBinAddr: 0x10000591C, symSize: 0x34 }
  - { offsetInCU: 0x812F, offset: 0x812F, size: 0x8, addend: 0x0, symName: __ZN9ProvinciaINSt3__112basic_stringIcNS0_11char_traitsIcEENS0_9allocatorIcEEEEED1Ev, symObjAddr: 0x19A0, symBinAddr: 0x100005950, symSize: 0x2C }
  - { offsetInCU: 0x8159, offset: 0x8159, size: 0x8, addend: 0x0, symName: __Z17mostrarListaDocksINSt3__112basic_stringIcNS0_11char_traitsIcEENS0_9allocatorIcEEEEEvP4NodoIT_E, symObjAddr: 0x19CC, symBinAddr: 0x10000597C, symSize: 0x104 }
  - { offsetInCU: 0x8198, offset: 0x8198, size: 0x8, addend: 0x0, symName: __Z24mostrarDockMenorDespachoINSt3__112basic_stringIcNS0_11char_traitsIcEENS0_9allocatorIcEEEEEvP4NodoIT_Ei, symObjAddr: 0x1AD0, symBinAddr: 0x100005A80, symSize: 0x2A4 }
  - { offsetInCU: 0x8215, offset: 0x8215, size: 0x8, addend: 0x0, symName: __ZN11DockArchivoINSt3__112basic_stringIcNS0_11char_traitsIcEENS0_9allocatorIcEEEEEC2ERKS7_, symObjAddr: 0x1D74, symBinAddr: 0x100005D24, symSize: 0x94 }
  - { offsetInCU: 0x8247, offset: 0x8247, size: 0x8, addend: 0x0, symName: __ZN11DockArchivoINSt3__112basic_stringIcNS0_11char_traitsIcEENS0_9allocatorIcEEEEED2Ev, symObjAddr: 0x1E08, symBinAddr: 0x100005DB8, symSize: 0x3C }
  - { offsetInCU: 0x8271, offset: 0x8271, size: 0x8, addend: 0x0, symName: __ZN8ProductoINSt3__112basic_stringIcNS0_11char_traitsIcEENS0_9allocatorIcEEEEEC2ERKS7_, symObjAddr: 0x1E44, symBinAddr: 0x100005DF4, symSize: 0x40 }
  - { offsetInCU: 0x82A3, offset: 0x82A3, size: 0x8, addend: 0x0, symName: __ZN8ProductoINSt3__112basic_stringIcNS0_11char_traitsIcEENS0_9allocatorIcEEEEED2Ev, symObjAddr: 0x1E84, symBinAddr: 0x100005E34, symSize: 0x2C }
  - { offsetInCU: 0x82CD, offset: 0x82CD, size: 0x8, addend: 0x0, symName: __ZN9ProvinciaINSt3__112basic_stringIcNS0_11char_traitsIcEENS0_9allocatorIcEEEEEC2ERKS7_, symObjAddr: 0x1EB0, symBinAddr: 0x100005E60, symSize: 0x40 }
  - { offsetInCU: 0x82FF, offset: 0x82FF, size: 0x8, addend: 0x0, symName: __ZN9ProvinciaINSt3__112basic_stringIcNS0_11char_traitsIcEENS0_9allocatorIcEEEEED2Ev, symObjAddr: 0x1EF0, symBinAddr: 0x100005EA0, symSize: 0x2C }
  - { offsetInCU: 0x8329, offset: 0x8329, size: 0x8, addend: 0x0, symName: __ZNSt3__112basic_stringIcNS_11char_traitsIcEENS_9allocatorIcEEEC2B8ue170006ILi0EEEPKc, symObjAddr: 0x1F1C, symBinAddr: 0x100005ECC, symSize: 0x58 }
  - { offsetInCU: 0x836B, offset: 0x836B, size: 0x8, addend: 0x0, symName: __ZNSt3__117__compressed_pairINS_12basic_stringIcNS_11char_traitsIcEENS_9allocatorIcEEE5__repES5_EC1B8ue170006INS_18__default_init_tagESA_EEOT_OT0_, symObjAddr: 0x1F74, symBinAddr: 0x100005F24, symSize: 0x3C }
  - { offsetInCU: 0x83C1, offset: 0x83C1, size: 0x8, addend: 0x0, symName: __ZNSt3__111char_traitsIcE6lengthB8ue170006EPKc, symObjAddr: 0x1FB0, symBinAddr: 0x100005F60, symSize: 0x34 }
  - { offsetInCU: 0x83E3, offset: 0x83E3, size: 0x8, addend: 0x0, symName: __ZNSt3__117__compressed_pairINS_12basic_stringIcNS_11char_traitsIcEENS_9allocatorIcEEE5__repES5_EC2B8ue170006INS_18__default_init_tagESA_EEOT_OT0_, symObjAddr: 0x1FE4, symBinAddr: 0x100005F94, symSize: 0x3C }
  - { offsetInCU: 0x8439, offset: 0x8439, size: 0x8, addend: 0x0, symName: __ZNSt3__122__compressed_pair_elemINS_12basic_stringIcNS_11char_traitsIcEENS_9allocatorIcEEE5__repELi0ELb0EEC2B8ue170006ENS_18__default_init_tagE, symObjAddr: 0x2020, symBinAddr: 0x100005FD0, symSize: 0x14 }
  - { offsetInCU: 0x846B, offset: 0x846B, size: 0x8, addend: 0x0, symName: __ZNSt3__122__compressed_pair_elemINS_9allocatorIcEELi1ELb1EEC2B8ue170006ENS_18__default_init_tagE, symObjAddr: 0x2034, symBinAddr: 0x100005FE4, symSize: 0x2C }
  - { offsetInCU: 0x849D, offset: 0x849D, size: 0x8, addend: 0x0, symName: __ZNSt3__19allocatorIcEC2B8ue170006Ev, symObjAddr: 0x2060, symBinAddr: 0x100006010, symSize: 0x2C }
  - { offsetInCU: 0x84C5, offset: 0x84C5, size: 0x8, addend: 0x0, symName: __ZNSt3__116__non_trivial_ifILb1ENS_9allocatorIcEEEC2B8ue170006Ev, symObjAddr: 0x208C, symBinAddr: 0x10000603C, symSize: 0x14 }
  - { offsetInCU: 0x84ED, offset: 0x84ED, size: 0x8, addend: 0x0, symName: __ZN11DockArchivoINSt3__112basic_stringIcNS0_11char_traitsIcEENS0_9allocatorIcEEEEEC2EjS6_S6_j, symObjAddr: 0x20D0, symBinAddr: 0x100006080, symSize: 0x9C }
  - { offsetInCU: 0x8596, offset: 0x8596, size: 0x8, addend: 0x0, symName: __ZN11NodoArchivoINSt3__112basic_stringIcNS0_11char_traitsIcEENS0_9allocatorIcEEEEEC1E11DockArchivoIS6_E, symObjAddr: 0x216C, symBinAddr: 0x10000611C, symSize: 0x34 }
  - { offsetInCU: 0x85CD, offset: 0x85CD, size: 0x8, addend: 0x0, symName: __ZN11NodoArchivoINSt3__112basic_stringIcNS0_11char_traitsIcEENS0_9allocatorIcEEEEEC2E11DockArchivoIS6_E, symObjAddr: 0x21A0, symBinAddr: 0x100006150, symSize: 0x38 }
  - { offsetInCU: 0x8604, offset: 0x8604, size: 0x8, addend: 0x0, symName: __ZN4DockINSt3__112basic_stringIcNS0_11char_traitsIcEENS0_9allocatorIcEEEEEC2Ev, symObjAddr: 0x21D8, symBinAddr: 0x100006188, symSize: 0x24 }
  - { offsetInCU: 0x862C, offset: 0x862C, size: 0x8, addend: 0x0, symName: __ZN8ProductoINSt3__112basic_stringIcNS0_11char_traitsIcEENS0_9allocatorIcEEEEEC2Ev, symObjAddr: 0x21FC, symBinAddr: 0x1000061AC, symSize: 0x38 }
  - { offsetInCU: 0x8654, offset: 0x8654, size: 0x8, addend: 0x0, symName: __ZN9ProvinciaINSt3__112basic_stringIcNS0_11char_traitsIcEENS0_9allocatorIcEEEEEC2Ev, symObjAddr: 0x2234, symBinAddr: 0x1000061E4, symSize: 0x38 }
  - { offsetInCU: 0x86C3, offset: 0x86C3, size: 0x8, addend: 0x0, symName: __ZN4NodoINSt3__112basic_stringIcNS0_11char_traitsIcEENS0_9allocatorIcEEEEEC1E4DockIS6_E, symObjAddr: 0x226C, symBinAddr: 0x10000621C, symSize: 0x34 }
  - { offsetInCU: 0x86FA, offset: 0x86FA, size: 0x8, addend: 0x0, symName: __ZN4NodoINSt3__112basic_stringIcNS0_11char_traitsIcEENS0_9allocatorIcEEEEEC2E4DockIS6_E, symObjAddr: 0x22A0, symBinAddr: 0x100006250, symSize: 0x30 }
  - { offsetInCU: 0x8731, offset: 0x8731, size: 0x8, addend: 0x0, symName: __ZN7NodoSubINSt3__112basic_stringIcNS0_11char_traitsIcEENS0_9allocatorIcEEEEEC1E8ProductoIS6_E, symObjAddr: 0x2450, symBinAddr: 0x100006400, symSize: 0x34 }
  - { offsetInCU: 0x876E, offset: 0x876E, size: 0x8, addend: 0x0, symName: __ZN8ProductoINSt3__112basic_stringIcNS0_11char_traitsIcEENS0_9allocatorIcEEEEEaSERKS7_, symObjAddr: 0x2484, symBinAddr: 0x100006434, symSize: 0x40 }
  - { offsetInCU: 0x879C, offset: 0x879C, size: 0x8, addend: 0x0, symName: __ZNKSt3__112basic_stringIcNS_11char_traitsIcEENS_9allocatorIcEEE7compareB8ue170006ERKS5_, symObjAddr: 0x24C4, symBinAddr: 0x100006474, symSize: 0x4C }
  - { offsetInCU: 0x87D2, offset: 0x87D2, size: 0x8, addend: 0x0, symName: __ZNKSt3__112basic_stringIcNS_11char_traitsIcEENS_9allocatorIcEEE7compareINS_17basic_string_viewIcS2_EELi0EEEiRKT_, symObjAddr: 0x2510, symBinAddr: 0x1000064C0, symSize: 0x12C }
  - { offsetInCU: 0x8854, offset: 0x8854, size: 0x8, addend: 0x0, symName: __ZNKSt3__112basic_stringIcNS_11char_traitsIcEENS_9allocatorIcEEEcvNS_17basic_string_viewIcS2_EEB8ue170006Ev, symObjAddr: 0x263C, symBinAddr: 0x1000065EC, symSize: 0x50 }
  - { offsetInCU: 0x8879, offset: 0x8879, size: 0x8, addend: 0x0, symName: __ZNKSt3__112basic_stringIcNS_11char_traitsIcEENS_9allocatorIcEEE4sizeB8ue170006Ev, symObjAddr: 0x268C, symBinAddr: 0x10000663C, symSize: 0x54 }
  - { offsetInCU: 0x889E, offset: 0x889E, size: 0x8, addend: 0x0, symName: __ZNKSt3__117basic_string_viewIcNS_11char_traitsIcEEE4sizeB8ue170006Ev, symObjAddr: 0x26E0, symBinAddr: 0x100006690, symSize: 0x18 }
  - { offsetInCU: 0x88C2, offset: 0x88C2, size: 0x8, addend: 0x0, symName: __ZNSt3__111char_traitsIcE7compareB8ue170006EPKcS3_m, symObjAddr: 0x26F8, symBinAddr: 0x1000066A8, symSize: 0x34 }
  - { offsetInCU: 0x8901, offset: 0x8901, size: 0x8, addend: 0x0, symName: __ZNKSt3__112basic_stringIcNS_11char_traitsIcEENS_9allocatorIcEEE4dataB8ue170006Ev, symObjAddr: 0x272C, symBinAddr: 0x1000066DC, symSize: 0x28 }
  - { offsetInCU: 0x8926, offset: 0x8926, size: 0x8, addend: 0x0, symName: __ZNKSt3__117basic_string_viewIcNS_11char_traitsIcEEE4dataB8ue170006Ev, symObjAddr: 0x2754, symBinAddr: 0x100006704, symSize: 0x18 }
  - { offsetInCU: 0x894B, offset: 0x894B, size: 0x8, addend: 0x0, symName: __ZNKSt3__112basic_stringIcNS_11char_traitsIcEENS_9allocatorIcEEE9__is_longB8ue170006Ev, symObjAddr: 0x2798, symBinAddr: 0x100006748, symSize: 0x38 }
  - { offsetInCU: 0x8970, offset: 0x8970, size: 0x8, addend: 0x0, symName: __ZNKSt3__112basic_stringIcNS_11char_traitsIcEENS_9allocatorIcEEE15__get_long_sizeB8ue170006Ev, symObjAddr: 0x27D0, symBinAddr: 0x100006780, symSize: 0x28 }
  - { offsetInCU: 0x8995, offset: 0x8995, size: 0x8, addend: 0x0, symName: __ZNKSt3__112basic_stringIcNS_11char_traitsIcEENS_9allocatorIcEEE16__get_short_sizeB8ue170006Ev, symObjAddr: 0x27F8, symBinAddr: 0x1000067A8, symSize: 0x34 }
  - { offsetInCU: 0x89BA, offset: 0x89BA, size: 0x8, addend: 0x0, symName: __ZNKSt3__117__compressed_pairINS_12basic_stringIcNS_11char_traitsIcEENS_9allocatorIcEEE5__repES5_E5firstB8ue170006Ev, symObjAddr: 0x282C, symBinAddr: 0x1000067DC, symSize: 0x24 }
  - { offsetInCU: 0x89DF, offset: 0x89DF, size: 0x8, addend: 0x0, symName: __ZNKSt3__122__compressed_pair_elemINS_12basic_stringIcNS_11char_traitsIcEENS_9allocatorIcEEE5__repELi0ELb0EE5__getB8ue170006Ev, symObjAddr: 0x2850, symBinAddr: 0x100006800, symSize: 0x14 }
  - { offsetInCU: 0x8A04, offset: 0x8A04, size: 0x8, addend: 0x0, symName: __ZNKSt3__112basic_stringIcNS_11char_traitsIcEENS_9allocatorIcEEE13__get_pointerB8ue170006Ev, symObjAddr: 0x2878, symBinAddr: 0x100006828, symSize: 0x54 }
  - { offsetInCU: 0x8A29, offset: 0x8A29, size: 0x8, addend: 0x0, symName: __ZNKSt3__112basic_stringIcNS_11char_traitsIcEENS_9allocatorIcEEE18__get_long_pointerB8ue170006Ev, symObjAddr: 0x28CC, symBinAddr: 0x10000687C, symSize: 0x28 }
  - { offsetInCU: 0x8A4E, offset: 0x8A4E, size: 0x8, addend: 0x0, symName: __ZNKSt3__112basic_stringIcNS_11char_traitsIcEENS_9allocatorIcEEE19__get_short_pointerB8ue170006Ev, symObjAddr: 0x28F4, symBinAddr: 0x1000068A4, symSize: 0x28 }
  - { offsetInCU: 0x8A73, offset: 0x8A73, size: 0x8, addend: 0x0, symName: __ZNSt3__114pointer_traitsIPKcE10pointer_toB8ue170006ERS1_, symObjAddr: 0x291C, symBinAddr: 0x1000068CC, symSize: 0x14 }
  - { offsetInCU: 0x8AAA, offset: 0x8AAA, size: 0x8, addend: 0x0, symName: __ZNKSt3__16__lessIvvEclB8ue170006ImmEEbRKT_RKT0_, symObjAddr: 0x2984, symBinAddr: 0x100006934, symSize: 0x34 }
  - { offsetInCU: 0x8AFC, offset: 0x8AFC, size: 0x8, addend: 0x0, symName: __ZNSt3__117basic_string_viewIcNS_11char_traitsIcEEEC1B8ue170006EPKcm, symObjAddr: 0x29B8, symBinAddr: 0x100006968, symSize: 0x3C }
  - { offsetInCU: 0x8B42, offset: 0x8B42, size: 0x8, addend: 0x0, symName: __ZNSt3__117basic_string_viewIcNS_11char_traitsIcEEEC2B8ue170006EPKcm, symObjAddr: 0x29F4, symBinAddr: 0x1000069A4, symSize: 0x2C }
  - { offsetInCU: 0x8B88, offset: 0x8B88, size: 0x8, addend: 0x0, symName: __ZN7NodoSubINSt3__112basic_stringIcNS0_11char_traitsIcEENS0_9allocatorIcEEEEEC2E8ProductoIS6_E, symObjAddr: 0x2A20, symBinAddr: 0x1000069D0, symSize: 0x38 }
  - { offsetInCU: 0x8BBF, offset: 0x8BBF, size: 0x8, addend: 0x0, symName: __ZN16NodoSubProvinciaINSt3__112basic_stringIcNS0_11char_traitsIcEENS0_9allocatorIcEEEEEC1E9ProvinciaIS6_E, symObjAddr: 0x2A58, symBinAddr: 0x100006A08, symSize: 0x34 }
  - { offsetInCU: 0x8BFC, offset: 0x8BFC, size: 0x8, addend: 0x0, symName: __ZN9ProvinciaINSt3__112basic_stringIcNS0_11char_traitsIcEENS0_9allocatorIcEEEEEaSERKS7_, symObjAddr: 0x2A8C, symBinAddr: 0x100006A3C, symSize: 0x40 }
  - { offsetInCU: 0x8C29, offset: 0x8C29, size: 0x8, addend: 0x0, symName: __ZN16NodoSubProvinciaINSt3__112basic_stringIcNS0_11char_traitsIcEENS0_9allocatorIcEEEEEC2E9ProvinciaIS6_E, symObjAddr: 0x2ACC, symBinAddr: 0x100006A7C, symSize: 0x38 }
  - { offsetInCU: 0x8C61, offset: 0x8C61, size: 0x8, addend: 0x0, symName: __ZNSt3__113basic_ostreamIcNS_11char_traitsIcEEElsB8ue170006EPFRS3_S4_E, symObjAddr: 0x2B4C, symBinAddr: 0x100006AFC, symSize: 0x2C }
  - { offsetInCU: 0x8C94, offset: 0x8C94, size: 0x8, addend: 0x0, symName: __ZNSt3__113basic_ostreamIcNS_11char_traitsIcEEElsB8ue170006EPFRNS_8ios_baseES5_E, symObjAddr: 0x2C10, symBinAddr: 0x100006BC0, symSize: 0x40 }
  - { offsetInCU: 0x8CC6, offset: 0x8CC6, size: 0x8, addend: 0x0, symName: __Z21mostrarListaProductosINSt3__112basic_stringIcNS0_11char_traitsIcEENS0_9allocatorIcEEEEEvP7NodoSubIT_E, symObjAddr: 0x2CAC, symBinAddr: 0x100006C5C, symSize: 0xA0 }
  - { offsetInCU: 0x8D24, offset: 0x8D24, size: 0x8, addend: 0x0, symName: __ZNKSt3__113basic_ostreamIcNS_11char_traitsIcEEE6sentrycvbB8ue170006Ev, symObjAddr: 0x2F38, symBinAddr: 0x100006EE8, symSize: 0x1C }
  - { offsetInCU: 0x8D48, offset: 0x8D48, size: 0x8, addend: 0x0, symName: __ZNSt3__119ostreambuf_iteratorIcNS_11char_traitsIcEEEC1B8ue170006ERNS_13basic_ostreamIcS2_EE, symObjAddr: 0x3194, symBinAddr: 0x100007144, symSize: 0x34 }
  - { offsetInCU: 0x8D7F, offset: 0x8D7F, size: 0x8, addend: 0x0, symName: __ZNKSt3__18ios_base5flagsB8ue170006Ev, symObjAddr: 0x31C8, symBinAddr: 0x100007178, symSize: 0x18 }
  - { offsetInCU: 0x8DA6, offset: 0x8DA6, size: 0x8, addend: 0x0, symName: __ZNKSt3__19basic_iosIcNS_11char_traitsIcEEE4fillB8ue170006Ev, symObjAddr: 0x31E0, symBinAddr: 0x100007190, symSize: 0x64 }
  - { offsetInCU: 0x8DCD, offset: 0x8DCD, size: 0x8, addend: 0x0, symName: __ZNKSt3__119ostreambuf_iteratorIcNS_11char_traitsIcEEE6failedB8ue170006Ev, symObjAddr: 0x3244, symBinAddr: 0x1000071F4, symSize: 0x24 }
  - { offsetInCU: 0x8DF2, offset: 0x8DF2, size: 0x8, addend: 0x0, symName: __ZNSt3__19basic_iosIcNS_11char_traitsIcEEE8setstateB8ue170006Ej, symObjAddr: 0x3268, symBinAddr: 0x100007218, symSize: 0x2C }
  - { offsetInCU: 0x8E26, offset: 0x8E26, size: 0x8, addend: 0x0, symName: __ZNKSt3__18ios_base5widthB8ue170006Ev, symObjAddr: 0x3294, symBinAddr: 0x100007244, symSize: 0x18 }
  - { offsetInCU: 0x8E4D, offset: 0x8E4D, size: 0x8, addend: 0x0, symName: __ZNSt3__115basic_streambufIcNS_11char_traitsIcEEE5sputnB8ue170006EPKcl, symObjAddr: 0x32AC, symBinAddr: 0x10000725C, symSize: 0x3C }
  - { offsetInCU: 0x8E8D, offset: 0x8E8D, size: 0x8, addend: 0x0, symName: __ZNSt3__112basic_stringIcNS_11char_traitsIcEENS_9allocatorIcEEEC1B8ue170006Emc, symObjAddr: 0x32E8, symBinAddr: 0x100007298, symSize: 0x3C }
  - { offsetInCU: 0x8ED4, offset: 0x8ED4, size: 0x8, addend: 0x0, symName: __ZNSt3__18ios_base5widthB8ue170006El, symObjAddr: 0x3324, symBinAddr: 0x1000072D4, symSize: 0x2C }
  - { offsetInCU: 0x8F18, offset: 0x8F18, size: 0x8, addend: 0x0, symName: __ZNSt3__112basic_stringIcNS_11char_traitsIcEENS_9allocatorIcEEEC2B8ue170006Emc, symObjAddr: 0x3350, symBinAddr: 0x100007300, symSize: 0x4C }
  - { offsetInCU: 0x8F5E, offset: 0x8F5E, size: 0x8, addend: 0x0, symName: __ZNSt3__119ostreambuf_iteratorIcNS_11char_traitsIcEEEC2B8ue170006ERNS_13basic_ostreamIcS2_EE, symObjAddr: 0x339C, symBinAddr: 0x10000734C, symSize: 0x54 }
  - { offsetInCU: 0x8F95, offset: 0x8F95, size: 0x8, addend: 0x0, symName: __ZNKSt3__19basic_iosIcNS_11char_traitsIcEEE5rdbufB8ue170006Ev, symObjAddr: 0x33F0, symBinAddr: 0x1000073A0, symSize: 0x24 }
  - { offsetInCU: 0x8FBC, offset: 0x8FBC, size: 0x8, addend: 0x0, symName: __ZNKSt3__18ios_base5rdbufB8ue170006Ev, symObjAddr: 0x3414, symBinAddr: 0x1000073C4, symSize: 0x18 }
  - { offsetInCU: 0x8FE1, offset: 0x8FE1, size: 0x8, addend: 0x0, symName: __ZNSt3__111char_traitsIcE11eq_int_typeB8ue170006Eii, symObjAddr: 0x342C, symBinAddr: 0x1000073DC, symSize: 0x28 }
  - { offsetInCU: 0x9014, offset: 0x9014, size: 0x8, addend: 0x0, symName: __ZNSt3__111char_traitsIcE3eofB8ue170006Ev, symObjAddr: 0x3454, symBinAddr: 0x100007404, symSize: 0x8 }
  - { offsetInCU: 0x9028, offset: 0x9028, size: 0x8, addend: 0x0, symName: __ZNKSt3__19basic_iosIcNS_11char_traitsIcEEE5widenB8ue170006Ec, symObjAddr: 0x345C, symBinAddr: 0x10000740C, symSize: 0x84 }
  - { offsetInCU: 0x9095, offset: 0x9095, size: 0x8, addend: 0x0, symName: __ZNKSt3__15ctypeIcE5widenB8ue170006Ec, symObjAddr: 0x350C, symBinAddr: 0x1000074BC, symSize: 0x38 }
  - { offsetInCU: 0x90C9, offset: 0x90C9, size: 0x8, addend: 0x0, symName: __ZNSt3__18ios_base8setstateB8ue170006Ej, symObjAddr: 0x3544, symBinAddr: 0x1000074F4, symSize: 0x34 }
  - { offsetInCU: 0x90FF, offset: 0x90FF, size: 0x8, addend: 0x0, symName: __ZNSt3__18ios_base4setfB8ue170006Ejj, symObjAddr: 0x3578, symBinAddr: 0x100007528, symSize: 0x5C }
  - { offsetInCU: 0x9153, offset: 0x9153, size: 0x8, addend: 0x0, symName: __ZNSt3__18ios_base6unsetfB8ue170006Ej, symObjAddr: 0x35D4, symBinAddr: 0x100007584, symSize: 0x28 }
  - { offsetInCU: 0x9188, offset: 0x9188, size: 0x8, addend: 0x0, symName: __ZNSt3__18__iom_t6C1B8ue170006Ei, symObjAddr: 0x35FC, symBinAddr: 0x1000075AC, symSize: 0x34 }
  - { offsetInCU: 0x91BE, offset: 0x91BE, size: 0x8, addend: 0x0, symName: __ZNSt3__18__iom_t6C2B8ue170006Ei, symObjAddr: 0x3630, symBinAddr: 0x1000075E0, symSize: 0x20 }
  - { offsetInCU: 0x91F4, offset: 0x91F4, size: 0x8, addend: 0x0, symName: __ZNSt3__112basic_stringIcNS_11char_traitsIcEENS_9allocatorIcEEEC1B8ue170006Ev, symObjAddr: 0x369C, symBinAddr: 0x10000764C, symSize: 0x2C }
  - { offsetInCU: 0x921C, offset: 0x921C, size: 0x8, addend: 0x0, symName: __Z22mostrarListaProvinciasINSt3__112basic_stringIcNS0_11char_traitsIcEENS0_9allocatorIcEEEEEvP16NodoSubProvinciaIT_E, symObjAddr: 0x36C8, symBinAddr: 0x100007678, symSize: 0xA0 }
  - { offsetInCU: 0x925B, offset: 0x925B, size: 0x8, addend: 0x0, symName: __ZNSt3__112basic_stringIcNS_11char_traitsIcEENS_9allocatorIcEEEC2B8ue170006Ev, symObjAddr: 0x3768, symBinAddr: 0x100007718, symSize: 0x48 }
  - { offsetInCU: 0x9284, offset: 0x9284, size: 0x8, addend: 0x0, symName: __ZNSt3__112basic_stringIcNS_11char_traitsIcEENS_9allocatorIcEEE14__default_initB8ue170006Ev, symObjAddr: 0x37B0, symBinAddr: 0x100007760, symSize: 0x40 }
  - { offsetInCU: 0x92A9, offset: 0x92A9, size: 0x8, addend: 0x0, symName: __ZNSt3__117__compressed_pairINS_12basic_stringIcNS_11char_traitsIcEENS_9allocatorIcEEE5__repES5_E5firstB8ue170006Ev, symObjAddr: 0x37F0, symBinAddr: 0x1000077A0, symSize: 0x24 }
  - { offsetInCU: 0x92CE, offset: 0x92CE, size: 0x8, addend: 0x0, symName: __ZNSt3__122__compressed_pair_elemINS_12basic_stringIcNS_11char_traitsIcEENS_9allocatorIcEEE5__repELi0ELb0EE5__getB8ue170006Ev, symObjAddr: 0x3814, symBinAddr: 0x1000077C4, symSize: 0x14 }
...
